target datalayout = "e-m:e-p270:32:32-p271:32:32-p272:64:64-i64:64-i128:128-f80:128-n8:16:32:64-S128"
target triple = "x86_64-pc-linux-gnu"

%struct.PJconsts = type { ptr, ptr, ptr, ptr, ptr, ptr, ptr, ptr, ptr, ptr, ptr, ptr, i32, ptr, ptr, ptr, ptr, ptr, ptr, ptr, ptr, double, double, double, double, double, double, double, double, double, double, double, double, double, double, double, double, double, double, double, double, double, double, i32, i32, i32, i32, i32, i32, i32, i32, i32, i32, i32, ptr, ptr, ptr, ptr, ptr, ptr, double, double, double, double, double, double, double, double, double, double, double, i32, [7 x double], i32, ptr, ptr, double, double, i32, [4 x i8], %"class.std::shared_ptr", i8, double, i8, %"class.std::__cxx11::basic_string", %"class.std::__cxx11::basic_string", %"class.std::__cxx11::basic_string", i8, %"class.std::vector", i32, %"class.std::vector.3", i32, i8, i8, i8, ptr }
%"class.std::shared_ptr" = type { %"class.std::__shared_ptr" }
%"class.std::__shared_ptr" = type { ptr, %"class.std::__shared_count" }
%"class.std::__shared_count" = type { ptr }
%"class.std::__cxx11::basic_string" = type { %"struct.std::__cxx11::basic_string<char>::_Alloc_hider", i64, %union.anon }
%"struct.std::__cxx11::basic_string<char>::_Alloc_hider" = type { ptr }
%union.anon = type { i64, [8 x i8] }
%"class.std::vector" = type { %"struct.std::_Vector_base" }
%"struct.std::_Vector_base" = type { %"struct.std::_Vector_base<osgeo::proj::operation::GridDescription, std::allocator<osgeo::proj::operation::GridDescription>>::_Vector_impl" }
%"struct.std::_Vector_base<osgeo::proj::operation::GridDescription, std::allocator<osgeo::proj::operation::GridDescription>>::_Vector_impl" = type { %"struct.std::_Vector_base<osgeo::proj::operation::GridDescription, std::allocator<osgeo::proj::operation::GridDescription>>::_Vector_impl_data" }
%"struct.std::_Vector_base<osgeo::proj::operation::GridDescription, std::allocator<osgeo::proj::operation::GridDescription>>::_Vector_impl_data" = type { ptr, ptr, ptr }
%"class.std::vector.3" = type { %"struct.std::_Vector_base.4" }
%"struct.std::_Vector_base.4" = type { %"struct.std::_Vector_base<PJCoordOperation, std::allocator<PJCoordOperation>>::_Vector_impl" }
%"struct.std::_Vector_base<PJCoordOperation, std::allocator<PJCoordOperation>>::_Vector_impl" = type { %"struct.std::_Vector_base<PJCoordOperation, std::allocator<PJCoordOperation>>::_Vector_impl_data" }
%"struct.std::_Vector_base<PJCoordOperation, std::allocator<PJCoordOperation>>::_Vector_impl_data" = type { ptr, ptr, ptr }
%"struct.(anonymous namespace)::pj_lcc_data" = type { double, double, double, double, double }
%struct.PJ_LP = type { double, double }
%struct.PJ_XY = type { double, double }

; Function Attrs: mustprogress uwtable
define internal { double, double } @_ZL13lcc_e_forward5PJ_LPP8PJconsts(double %0, double %1, ptr noundef %2) #0 {
  %4 = alloca %struct.PJ_XY, align 8
  %5 = alloca %struct.PJ_LP, align 8
  %6 = alloca ptr, align 8
  %7 = alloca ptr, align 8
  %8 = alloca double, align 8
  %9 = alloca i32, align 4
  %10 = getelementptr inbounds nuw { double, double }, ptr %5, i32 0, i32 0
  store double %0, ptr %10, align 8
  %11 = getelementptr inbounds nuw { double, double }, ptr %5, i32 0, i32 1
  store double %1, ptr %11, align 8
  store ptr %2, ptr %6, align 8, !tbaa !3
  call void @llvm.memset.p0.i64(ptr align 8 %4, i8 0, i64 16, i1 false)
  call void @llvm.lifetime.start.p0(i64 8, ptr %7) #7
  %12 = load ptr, ptr %6, align 8, !tbaa !3
  %13 = getelementptr inbounds nuw %struct.PJconsts, ptr %12, i32 0, i32 11
  %14 = load ptr, ptr %13, align 8, !tbaa !43
  store ptr %14, ptr %7, align 8, !tbaa !41
  call void @llvm.lifetime.start.p0(i64 8, ptr %8) #7
  %15 = getelementptr inbounds nuw %struct.PJ_LP, ptr %5, i32 0, i32 1
  %16 = load double, ptr %15, align 8, !tbaa !64
  %17 = call double @llvm.fabs.f64(double %16)
  %18 = fsub double %17, 0x3FF921FB54442D18
  %19 = call double @llvm.fabs.f64(double %18)
  %20 = fcmp olt double %19, 1.000000e-10
  br i1 %20, label %21, label %33

21:                                               ; preds = %3
  %22 = getelementptr inbounds nuw %struct.PJ_LP, ptr %5, i32 0, i32 1
  %23 = load double, ptr %22, align 8, !tbaa !64
  %24 = load ptr, ptr %7, align 8, !tbaa !41
  %25 = getelementptr inbounds nuw %"struct.(anonymous namespace)::pj_lcc_data", ptr %24, i32 0, i32 2
  %26 = load double, ptr %25, align 8, !tbaa !53
  %27 = fmul double %23, %26
  %28 = fcmp ole double %27, 0.000000e+00
  br i1 %28, label %29, label %32

29:                                               ; preds = %21
  %30 = load ptr, ptr %6, align 8, !tbaa !3
  %31 = call i32 @proj_errno_set(ptr noundef %30, i32 noundef 2050)
  store i32 1, ptr %9, align 4
  br label %99

32:                                               ; preds = %21
  store double 0.000000e+00, ptr %8, align 8, !tbaa !52
  br label %68

33:                                               ; preds = %3
  %34 = load ptr, ptr %7, align 8, !tbaa !41
  %35 = getelementptr inbounds nuw %"struct.(anonymous namespace)::pj_lcc_data", ptr %34, i32 0, i32 4
  %36 = load double, ptr %35, align 8, !tbaa !57
  %37 = load ptr, ptr %6, align 8, !tbaa !3
  %38 = getelementptr inbounds nuw %struct.PJconsts, ptr %37, i32 0, i32 27
  %39 = load double, ptr %38, align 8, !tbaa !54
  %40 = fcmp une double %39, 0.000000e+00
  br i1 %40, label %41, label %55

41:                                               ; preds = %33
  %42 = getelementptr inbounds nuw %struct.PJ_LP, ptr %5, i32 0, i32 1
  %43 = load double, ptr %42, align 8, !tbaa !64
  %44 = getelementptr inbounds nuw %struct.PJ_LP, ptr %5, i32 0, i32 1
  %45 = load double, ptr %44, align 8, !tbaa !64
  %46 = call double @sin(double noundef %45) #7, !tbaa !51
  %47 = load ptr, ptr %6, align 8, !tbaa !3
  %48 = getelementptr inbounds nuw %struct.PJconsts, ptr %47, i32 0, i32 26
  %49 = load double, ptr %48, align 8, !tbaa !55
  %50 = call noundef double @_Z7pj_tsfnddd(double noundef %43, double noundef %46, double noundef %49)
  %51 = load ptr, ptr %7, align 8, !tbaa !41
  %52 = getelementptr inbounds nuw %"struct.(anonymous namespace)::pj_lcc_data", ptr %51, i32 0, i32 2
  %53 = load double, ptr %52, align 8, !tbaa !53
  %54 = call double @pow(double noundef %50, double noundef %53) #7, !tbaa !51
  br label %65

55:                                               ; preds = %33
  %56 = getelementptr inbounds nuw %struct.PJ_LP, ptr %5, i32 0, i32 1
  %57 = load double, ptr %56, align 8, !tbaa !64
  %58 = call double @llvm.fmuladd.f64(double 5.000000e-01, double %57, double 0x3FE921FB54442D18)
  %59 = call double @tan(double noundef %58) #7, !tbaa !51
  %60 = load ptr, ptr %7, align 8, !tbaa !41
  %61 = getelementptr inbounds nuw %"struct.(anonymous namespace)::pj_lcc_data", ptr %60, i32 0, i32 2
  %62 = load double, ptr %61, align 8, !tbaa !53
  %63 = fneg double %62
  %64 = call double @pow(double noundef %59, double noundef %63) #7, !tbaa !51
  br label %65

65:                                               ; preds = %55, %41
  %66 = phi double [ %54, %41 ], [ %64, %55 ]
  %67 = fmul double %36, %66
  store double %67, ptr %8, align 8, !tbaa !52
  br label %68

68:                                               ; preds = %65, %32
  %69 = load ptr, ptr %7, align 8, !tbaa !41
  %70 = getelementptr inbounds nuw %"struct.(anonymous namespace)::pj_lcc_data", ptr %69, i32 0, i32 2
  %71 = load double, ptr %70, align 8, !tbaa !53
  %72 = getelementptr inbounds nuw %struct.PJ_LP, ptr %5, i32 0, i32 0
  %73 = load double, ptr %72, align 8, !tbaa !66
  %74 = fmul double %73, %71
  store double %74, ptr %72, align 8, !tbaa !66
  %75 = load ptr, ptr %6, align 8, !tbaa !3
  %76 = getelementptr inbounds nuw %struct.PJconsts, ptr %75, i32 0, i32 66
  %77 = load double, ptr %76, align 8, !tbaa !60
  %78 = load double, ptr %8, align 8, !tbaa !52
  %79 = getelementptr inbounds nuw %struct.PJ_LP, ptr %5, i32 0, i32 0
  %80 = load double, ptr %79, align 8, !tbaa !66
  %81 = call double @sin(double noundef %80) #7, !tbaa !51
  %82 = fmul double %78, %81
  %83 = fmul double %77, %82
  %84 = getelementptr inbounds nuw %struct.PJ_XY, ptr %4, i32 0, i32 0
  store double %83, ptr %84, align 8, !tbaa !61
  %85 = load ptr, ptr %6, align 8, !tbaa !3
  %86 = getelementptr inbounds nuw %struct.PJconsts, ptr %85, i32 0, i32 66
  %87 = load double, ptr %86, align 8, !tbaa !60
  %88 = load ptr, ptr %7, align 8, !tbaa !41
  %89 = getelementptr inbounds nuw %"struct.(anonymous namespace)::pj_lcc_data", ptr %88, i32 0, i32 3
  %90 = load double, ptr %89, align 8, !tbaa !56
  %91 = load double, ptr %8, align 8, !tbaa !52
  %92 = getelementptr inbounds nuw %struct.PJ_LP, ptr %5, i32 0, i32 0
  %93 = load double, ptr %92, align 8, !tbaa !66
  %94 = call double @cos(double noundef %93) #7, !tbaa !51
  %95 = fneg double %91
  %96 = call double @llvm.fmuladd.f64(double %95, double %94, double %90)
  %97 = fmul double %87, %96
  %98 = getelementptr inbounds nuw %struct.PJ_XY, ptr %4, i32 0, i32 1
  store double %97, ptr %98, align 8, !tbaa !63
  store i32 1, ptr %9, align 4
  br label %99

99:                                               ; preds = %68, %29
  call void @llvm.lifetime.end.p0(i64 8, ptr %8) #7
  call void @llvm.lifetime.end.p0(i64 8, ptr %7) #7
  %100 = load { double, double }, ptr %4, align 8
  ret { double, double } %100
}