; Function Attrs: mustprogress uwtable
define internal { double, double } @_ZL13lcc_e_forward5PJ_LPP8PJconsts(double %0, double %1, ptr noundef %2) #0 {
  %4 = getelementptr inbounds nuw i8, ptr %2, i64 88
  %5 = load ptr, ptr %4, align 8, !tbaa !40
  %6 = tail call double @llvm.fabs.f64(double %1)
  %7 = fadd double %6, 0xBFF921FB54442D18
  %8 = tail call double @llvm.fabs.f64(double %7)
  %9 = fcmp olt double %8, 1.000000e-10
  br i1 %9, label %10, label %17

10:                                               ; preds = %3
  %11 = getelementptr inbounds nuw i8, ptr %5, i64 16
  %12 = load double, ptr %11, align 8, !tbaa !48
  %13 = fmul double %1, %12
  %14 = fcmp ugt double %13, 0.000000e+00
  br i1 %14, label %42, label %15

15:                                               ; preds = %10
  %16 = tail call i32 @proj_errno_set(ptr noundef nonnull %2, i32 noundef 2050)
  br label %56

17:                                               ; preds = %3
  %18 = getelementptr inbounds nuw i8, ptr %5, i64 32
  %19 = load double, ptr %18, align 8, !tbaa !52
  %20 = getelementptr inbounds nuw i8, ptr %2, i64 216
  %21 = load double, ptr %20, align 8, !tbaa !49
  %22 = fcmp une double %21, 0.000000e+00
  br i1 %22, label %23, label %31

23:                                               ; preds = %17
  %24 = tail call double @sin(double noundef %1) #6, !tbaa !47
  %25 = getelementptr inbounds nuw i8, ptr %2, i64 208
  %26 = load double, ptr %25, align 8, !tbaa !50
  %27 = tail call noundef double @_Z7pj_tsfnddd(double noundef %1, double noundef %24, double noundef %26)
  %28 = getelementptr inbounds nuw i8, ptr %5, i64 16
  %29 = load double, ptr %28, align 8, !tbaa !48
  %30 = tail call double @pow(double noundef %27, double noundef %29) #6, !tbaa !47
  br label %38

31:                                               ; preds = %17
  %32 = tail call double @llvm.fmuladd.f64(double %1, double 5.000000e-01, double 0x3FE921FB54442D18)
  %33 = tail call double @tan(double noundef %32) #6, !tbaa !47
  %34 = getelementptr inbounds nuw i8, ptr %5, i64 16
  %35 = load double, ptr %34, align 8, !tbaa !48
  %36 = fneg double %35
  %37 = tail call double @pow(double noundef %33, double noundef %36) #6, !tbaa !47
  br label %38

38:                                               ; preds = %31, %23
  %39 = phi double [ %29, %23 ], [ %35, %31 ]
  %40 = phi double [ %30, %23 ], [ %37, %31 ]
  %41 = fmul double %19, %40
  br label %42

42:                                               ; preds = %10, %38
  %43 = phi double [ %39, %38 ], [ %12, %10 ]
  %.0 = phi double [ %41, %38 ], [ 0.000000e+00, %10 ]
  %44 = fmul double %0, %43
  %45 = getelementptr inbounds nuw i8, ptr %2, i64 488
  %46 = load double, ptr %45, align 8, !tbaa !55
  %47 = tail call double @sin(double noundef %44) #6, !tbaa !47
  %48 = fmul double %.0, %47
  %49 = fmul double %46, %48
  %50 = getelementptr inbounds nuw i8, ptr %5, i64 24
  %51 = load double, ptr %50, align 8, !tbaa !51
  %52 = tail call double @cos(double noundef %44) #6, !tbaa !47
  %53 = fneg double %.0
  %54 = tail call double @llvm.fmuladd.f64(double %53, double %52, double %51)
  %55 = fmul double %46, %54
  br label %56

56:                                               ; preds = %42, %15
  %.sroa.3.0 = phi double [ 0.000000e+00, %15 ], [ %55, %42 ]
  %.sroa.020.0 = phi double [ 0.000000e+00, %15 ], [ %49, %42 ]
  %.fca.0.insert = insertvalue { double, double } poison, double %.sroa.020.0, 0
  %.fca.1.insert = insertvalue { double, double } %.fca.0.insert, double %.sroa.3.0, 1
  ret { double, double } %.fca.1.insert
}